target datalayout = "e-m:e-p270:32:32-p271:32:32-p272:64:64-i64:64-i128:128-f80:128-n8:16:32:64-S128"
target triple = "x86_64-pc-linux-gnu"

; Function Attrs: mustprogress nounwind uwtable
define void @_ZN19OpenColorIO_v2_5dev15MatrixTransform3SatEPdS1_dPKd(ptr noundef %0, ptr noundef %1, double noundef %2, ptr noundef %3) #8 align 2 {
  %5 = alloca ptr, align 8
  %6 = alloca ptr, align 8
  %7 = alloca double, align 8
  %8 = alloca ptr, align 8
  store ptr %0, ptr %5, align 8, !tbaa !70
  store ptr %1, ptr %6, align 8, !tbaa !70
  store double %2, ptr %7, align 8, !tbaa !75
  store ptr %3, ptr %8, align 8, !tbaa !70
  %9 = load ptr, ptr %8, align 8, !tbaa !70
  %10 = icmp ne ptr %9, null
  br i1 %10, label %12, label %11

11:                                               ; preds = %4
  br label %117

12:                                               ; preds = %4
  %13 = load ptr, ptr %5, align 8, !tbaa !70
  %14 = icmp ne ptr %13, null
  br i1 %14, label %15, label %105

15:                                               ; preds = %12
  %16 = load double, ptr %7, align 8, !tbaa !75
  %17 = fsub double 1.000000e+00, %16
  %18 = load ptr, ptr %8, align 8, !tbaa !70
  %19 = getelementptr inbounds double, ptr %18, i64 0
  %20 = load double, ptr %19, align 8, !tbaa !75
  %21 = load double, ptr %7, align 8, !tbaa !75
  %22 = call double @llvm.fmuladd.f64(double %17, double %20, double %21)
  %23 = load ptr, ptr %5, align 8, !tbaa !70
  %24 = getelementptr inbounds double, ptr %23, i64 0
  store double %22, ptr %24, align 8, !tbaa !75
  %25 = load double, ptr %7, align 8, !tbaa !75
  %26 = fsub double 1.000000e+00, %25
  %27 = load ptr, ptr %8, align 8, !tbaa !70
  %28 = getelementptr inbounds double, ptr %27, i64 1
  %29 = load double, ptr %28, align 8, !tbaa !75
  %30 = fmul double %26, %29
  %31 = load ptr, ptr %5, align 8, !tbaa !70
  %32 = getelementptr inbounds double, ptr %31, i64 1
  store double %30, ptr %32, align 8, !tbaa !75
  %33 = load double, ptr %7, align 8, !tbaa !75
  %34 = fsub double 1.000000e+00, %33
  %35 = load ptr, ptr %8, align 8, !tbaa !70
  %36 = getelementptr inbounds double, ptr %35, i64 2
  %37 = load double, ptr %36, align 8, !tbaa !75
  %38 = fmul double %34, %37
  %39 = load ptr, ptr %5, align 8, !tbaa !70
  %40 = getelementptr inbounds double, ptr %39, i64 2
  store double %38, ptr %40, align 8, !tbaa !75
  %41 = load ptr, ptr %5, align 8, !tbaa !70
  %42 = getelementptr inbounds double, ptr %41, i64 3
  store double 0.000000e+00, ptr %42, align 8, !tbaa !75
  %43 = load double, ptr %7, align 8, !tbaa !75
  %44 = fsub double 1.000000e+00, %43
  %45 = load ptr, ptr %8, align 8, !tbaa !70
  %46 = getelementptr inbounds double, ptr %45, i64 0
  %47 = load double, ptr %46, align 8, !tbaa !75
  %48 = fmul double %44, %47
  %49 = load ptr, ptr %5, align 8, !tbaa !70
  %50 = getelementptr inbounds double, ptr %49, i64 4
  store double %48, ptr %50, align 8, !tbaa !75
  %51 = load double, ptr %7, align 8, !tbaa !75
  %52 = fsub double 1.000000e+00, %51
  %53 = load ptr, ptr %8, align 8, !tbaa !70
  %54 = getelementptr inbounds double, ptr %53, i64 1
  %55 = load double, ptr %54, align 8, !tbaa !75
  %56 = load double, ptr %7, align 8, !tbaa !75
  %57 = call double @llvm.fmuladd.f64(double %52, double %55, double %56)
  %58 = load ptr, ptr %5, align 8, !tbaa !70
  %59 = getelementptr inbounds double, ptr %58, i64 5
  store double %57, ptr %59, align 8, !tbaa !75
  %60 = load double, ptr %7, align 8, !tbaa !75
  %61 = fsub double 1.000000e+00, %60
  %62 = load ptr, ptr %8, align 8, !tbaa !70
  %63 = getelementptr inbounds double, ptr %62, i64 2
  %64 = load double, ptr %63, align 8, !tbaa !75
  %65 = fmul double %61, %64
  %66 = load ptr, ptr %5, align 8, !tbaa !70
  %67 = getelementptr inbounds double, ptr %66, i64 6
  store double %65, ptr %67, align 8, !tbaa !75
  %68 = load ptr, ptr %5, align 8, !tbaa !70
  %69 = getelementptr inbounds double, ptr %68, i64 7
  store double 0.000000e+00, ptr %69, align 8, !tbaa !75
  %70 = load double, ptr %7, align 8, !tbaa !75
  %71 = fsub double 1.000000e+00, %70
  %72 = load ptr, ptr %8, align 8, !tbaa !70
  %73 = getelementptr inbounds double, ptr %72, i64 0
  %74 = load double, ptr %73, align 8, !tbaa !75
  %75 = fmul double %71, %74
  %76 = load ptr, ptr %5, align 8, !tbaa !70
  %77 = getelementptr inbounds double, ptr %76, i64 8
  store double %75, ptr %77, align 8, !tbaa !75
  %78 = load double, ptr %7, align 8, !tbaa !75
  %79 = fsub double 1.000000e+00, %78
  %80 = load ptr, ptr %8, align 8, !tbaa !70
  %81 = getelementptr inbounds double, ptr %80, i64 1
  %82 = load double, ptr %81, align 8, !tbaa !75
  %83 = fmul double %79, %82
  %84 = load ptr, ptr %5, align 8, !tbaa !70
  %85 = getelementptr inbounds double, ptr %84, i64 9
  store double %83, ptr %85, align 8, !tbaa !75
  %86 = load double, ptr %7, align 8, !tbaa !75
  %87 = fsub double 1.000000e+00, %86
  %88 = load ptr, ptr %8, align 8, !tbaa !70
  %89 = getelementptr inbounds double, ptr %88, i64 2
  %90 = load double, ptr %89, align 8, !tbaa !75
  %91 = load double, ptr %7, align 8, !tbaa !75
  %92 = call double @llvm.fmuladd.f64(double %87, double %90, double %91)
  %93 = load ptr, ptr %5, align 8, !tbaa !70
  %94 = getelementptr inbounds double, ptr %93, i64 10
  store double %92, ptr %94, align 8, !tbaa !75
  %95 = load ptr, ptr %5, align 8, !tbaa !70
  %96 = getelementptr inbounds double, ptr %95, i64 11
  store double 0.000000e+00, ptr %96, align 8, !tbaa !75
  %97 = load ptr, ptr %5, align 8, !tbaa !70
  %98 = getelementptr inbounds double, ptr %97, i64 12
  store double 0.000000e+00, ptr %98, align 8, !tbaa !75
  %99 = load ptr, ptr %5, align 8, !tbaa !70
  %100 = getelementptr inbounds double, ptr %99, i64 13
  store double 0.000000e+00, ptr %100, align 8, !tbaa !75
  %101 = load ptr, ptr %5, align 8, !tbaa !70
  %102 = getelementptr inbounds double, ptr %101, i64 14
  store double 0.000000e+00, ptr %102, align 8, !tbaa !75
  %103 = load ptr, ptr %5, align 8, !tbaa !70
  %104 = getelementptr inbounds double, ptr %103, i64 15
  store double 1.000000e+00, ptr %104, align 8, !tbaa !75
  br label %105

105:                                              ; preds = %15, %12
  %106 = load ptr, ptr %6, align 8, !tbaa !70
  %107 = icmp ne ptr %106, null
  br i1 %107, label %108, label %117

108:                                              ; preds = %105
  %109 = load ptr, ptr %6, align 8, !tbaa !70
  %110 = getelementptr inbounds double, ptr %109, i64 0
  store double 0.000000e+00, ptr %110, align 8, !tbaa !75
  %111 = load ptr, ptr %6, align 8, !tbaa !70
  %112 = getelementptr inbounds double, ptr %111, i64 1
  store double 0.000000e+00, ptr %112, align 8, !tbaa !75
  %113 = load ptr, ptr %6, align 8, !tbaa !70
  %114 = getelementptr inbounds double, ptr %113, i64 2
  store double 0.000000e+00, ptr %114, align 8, !tbaa !75
  %115 = load ptr, ptr %6, align 8, !tbaa !70
  %116 = getelementptr inbounds double, ptr %115, i64 3
  store double 0.000000e+00, ptr %116, align 8, !tbaa !75
  br label %117

117:                                              ; preds = %11, %108, %105
  ret void
}