; Function Attrs: mustprogress nofree norecurse nosync nounwind willreturn memory(argmem: readwrite) uwtable
define void @_ZN19OpenColorIO_v2_5dev15MatrixTransform3SatEPdS1_dPKd(ptr noundef writeonly %0, ptr noundef writeonly %1, double noundef %2, ptr noundef readonly %3) local_unnamed_addr #18 align 2 {
  %.not = icmp eq ptr %3, null
  br i1 %.not, label %42, label %5

5:                                                ; preds = %4
  %.not46 = icmp eq ptr %0, null
  br i1 %.not46, label %40, label %6

6:                                                ; preds = %5
  %7 = fsub double 1.000000e+00, %2
  %8 = load double, ptr %3, align 8, !tbaa !67
  %9 = tail call double @llvm.fmuladd.f64(double %7, double %8, double %2)
  store double %9, ptr %0, align 8, !tbaa !67
  %10 = getelementptr inbounds nuw i8, ptr %3, i64 8
  %11 = load double, ptr %10, align 8, !tbaa !67
  %12 = fmul double %7, %11
  %13 = getelementptr inbounds nuw i8, ptr %0, i64 8
  store double %12, ptr %13, align 8, !tbaa !67
  %14 = getelementptr inbounds nuw i8, ptr %3, i64 16
  %15 = load double, ptr %14, align 8, !tbaa !67
  %16 = fmul double %7, %15
  %17 = getelementptr inbounds nuw i8, ptr %0, i64 16
  store double %16, ptr %17, align 8, !tbaa !67
  %18 = getelementptr inbounds nuw i8, ptr %0, i64 24
  store double 0.000000e+00, ptr %18, align 8, !tbaa !67
  %19 = load double, ptr %3, align 8, !tbaa !67
  %20 = fmul double %7, %19
  %21 = getelementptr inbounds nuw i8, ptr %0, i64 32
  store double %20, ptr %21, align 8, !tbaa !67
  %22 = load double, ptr %10, align 8, !tbaa !67
  %23 = tail call double @llvm.fmuladd.f64(double %7, double %22, double %2)
  %24 = getelementptr inbounds nuw i8, ptr %0, i64 40
  store double %23, ptr %24, align 8, !tbaa !67
  %25 = load double, ptr %14, align 8, !tbaa !67
  %26 = fmul double %7, %25
  %27 = getelementptr inbounds nuw i8, ptr %0, i64 48
  store double %26, ptr %27, align 8, !tbaa !67
  %28 = getelementptr inbounds nuw i8, ptr %0, i64 56
  store double 0.000000e+00, ptr %28, align 8, !tbaa !67
  %29 = load double, ptr %3, align 8, !tbaa !67
  %30 = fmul double %7, %29
  %31 = getelementptr inbounds nuw i8, ptr %0, i64 64
  store double %30, ptr %31, align 8, !tbaa !67
  %32 = load double, ptr %10, align 8, !tbaa !67
  %33 = fmul double %7, %32
  %34 = getelementptr inbounds nuw i8, ptr %0, i64 72
  store double %33, ptr %34, align 8, !tbaa !67
  %35 = load double, ptr %14, align 8, !tbaa !67
  %36 = tail call double @llvm.fmuladd.f64(double %7, double %35, double %2)
  %37 = getelementptr inbounds nuw i8, ptr %0, i64 80
  store double %36, ptr %37, align 8, !tbaa !67
  %38 = getelementptr inbounds nuw i8, ptr %0, i64 88
  %39 = getelementptr inbounds nuw i8, ptr %0, i64 120
  tail call void @llvm.memset.p0.i64(ptr noundef nonnull align 8 dereferenceable(32) %38, i8 0, i64 32, i1 false)
  store double 1.000000e+00, ptr %39, align 8, !tbaa !67
  br label %40

40:                                               ; preds = %6, %5
  %.not47 = icmp eq ptr %1, null
  br i1 %.not47, label %42, label %41

41:                                               ; preds = %40
  tail call void @llvm.memset.p0.i64(ptr noundef nonnull align 8 dereferenceable(32) %1, i8 0, i64 32, i1 false)
  br label %42

42:                                               ; preds = %4, %41, %40
  ret void
}